; Function Attrs: nounwind uwtable
define ptr @l_Lake_GitRepo_quietInit(ptr noundef %0, ptr noundef %1, ptr noundef %2) local_unnamed_addr #0 {
  tail call void @lean_inc_heartbeat() #3
  %4 = tail call noalias ptr @mi_malloc_small(i64 noundef 16) #3
  %5 = icmp eq ptr %4, null
  br i1 %5, label %6, label %lean_alloc_ctor.exit

6:                                                ; preds = %3
  tail call void @lean_internal_panic_out_of_memory() #4
  unreachable

lean_alloc_ctor.exit:                             ; preds = %3
  %7 = getelementptr inbounds nuw i8, ptr %4, i64 4
  store i32 1, ptr %4, align 4, !tbaa !8
  store i32 16842768, ptr %7, align 4
  %8 = getelementptr inbounds nuw i8, ptr %4, i64 8
  store ptr %0, ptr %8, align 8, !tbaa !12
  %9 = load ptr, ptr @l_Lake_GitRepo_captureGit_x3f___closed__1, align 8, !tbaa !12
  %10 = load ptr, ptr @l_Lake_Git_filterUrl_x3f___closed__1, align 8, !tbaa !12
  %11 = load ptr, ptr @l_Lake_GitRepo_quietInit___closed__5, align 8, !tbaa !12
  %12 = load ptr, ptr @l_Lake_GitRepo_captureGit_x3f___closed__2, align 8, !tbaa !12
  tail call void @lean_inc_heartbeat() #3
  %13 = tail call noalias ptr @mi_malloc_small(i64 noundef 56) #3
  %14 = icmp eq ptr %13, null
  br i1 %14, label %15, label %lean_alloc_ctor.exit20

15:                                               ; preds = %lean_alloc_ctor.exit
  tail call void @lean_internal_panic_out_of_memory() #4
  unreachable

lean_alloc_ctor.exit20:                           ; preds = %lean_alloc_ctor.exit
  %16 = getelementptr inbounds nuw i8, ptr %13, i64 4
  %17 = getelementptr inbounds nuw i8, ptr %13, i64 48
  store i64 1, ptr %17, align 8, !tbaa !4
  store i32 1, ptr %13, align 4, !tbaa !8
  store i32 327736, ptr %16, align 4
  %18 = getelementptr inbounds nuw i8, ptr %13, i64 8
  store ptr %9, ptr %18, align 8, !tbaa !12
  %19 = getelementptr inbounds nuw i8, ptr %13, i64 16
  store ptr %10, ptr %19, align 8, !tbaa !12
  %20 = getelementptr inbounds nuw i8, ptr %13, i64 24
  store ptr %11, ptr %20, align 8, !tbaa !12
  %21 = getelementptr inbounds nuw i8, ptr %13, i64 32
  store ptr %4, ptr %21, align 8, !tbaa !12
  %22 = getelementptr inbounds nuw i8, ptr %13, i64 40
  store ptr %12, ptr %22, align 8, !tbaa !12
  %23 = tail call ptr @l_Lake_proc(ptr noundef nonnull %13, i8 noundef zeroext 1, ptr noundef %1, ptr noundef %2) #3
  ret ptr %23
}